; Function Attrs: nounwind uwtable
define ptr @l_Lean_Elab_addConstInfo___at_Lean_Elab_OpenDecl_elabOpenDecl___spec__45___rarg___lambda__1(ptr noundef %0, ptr noundef %1, ptr noundef %2, ptr noundef %3, ptr noundef %4, ptr noundef %5) #0 {
  tail call void @lean_inc_heartbeat() #6
  %7 = tail call noalias ptr @mi_malloc_small(i64 noundef 24) #6
  %8 = icmp eq ptr %7, null
  br i1 %8, label %9, label %lean_alloc_ctor.exit

9:                                                ; preds = %6
  tail call void @lean_internal_panic_out_of_memory() #7
  unreachable

lean_alloc_ctor.exit:                             ; preds = %6
  %10 = getelementptr inbounds nuw i8, ptr %7, i64 4
  store i32 1, ptr %7, align 4, !tbaa !8
  store i32 131096, ptr %10, align 4
  %11 = getelementptr inbounds nuw i8, ptr %7, i64 8
  store ptr inttoptr (i64 1 to ptr), ptr %11, align 8, !tbaa !4
  %12 = getelementptr inbounds nuw i8, ptr %7, i64 16
  store ptr %0, ptr %12, align 8, !tbaa !4
  %13 = load ptr, ptr @l_Lean_LocalContext_empty, align 8, !tbaa !4
  tail call void @lean_inc_heartbeat() #6
  %14 = tail call noalias ptr @mi_malloc_small(i64 noundef 48) #6
  %15 = icmp eq ptr %14, null
  br i1 %15, label %16, label %lean_alloc_ctor.exit20

16:                                               ; preds = %lean_alloc_ctor.exit
  tail call void @lean_internal_panic_out_of_memory() #7
  unreachable

lean_alloc_ctor.exit20:                           ; preds = %lean_alloc_ctor.exit
  %17 = getelementptr inbounds nuw i8, ptr %14, i64 4
  %18 = getelementptr inbounds nuw i8, ptr %14, i64 40
  store i64 0, ptr %18, align 8, !tbaa !16
  store i32 1, ptr %14, align 4, !tbaa !8
  store i32 262192, ptr %17, align 4
  %19 = getelementptr inbounds nuw i8, ptr %14, i64 8
  store ptr %7, ptr %19, align 8, !tbaa !4
  %20 = getelementptr inbounds nuw i8, ptr %14, i64 16
  store ptr %13, ptr %20, align 8, !tbaa !4
  %21 = getelementptr inbounds nuw i8, ptr %14, i64 24
  store ptr %1, ptr %21, align 8, !tbaa !4
  %22 = getelementptr inbounds nuw i8, ptr %14, i64 32
  store ptr %5, ptr %22, align 8, !tbaa !4
  tail call void @lean_inc_heartbeat() #6
  %23 = tail call noalias ptr @mi_malloc_small(i64 noundef 16) #6
  %24 = icmp eq ptr %23, null
  br i1 %24, label %25, label %lean_alloc_ctor.exit21

25:                                               ; preds = %lean_alloc_ctor.exit20
  tail call void @lean_internal_panic_out_of_memory() #7
  unreachable

lean_alloc_ctor.exit21:                           ; preds = %lean_alloc_ctor.exit20
  %26 = getelementptr inbounds nuw i8, ptr %23, i64 4
  store i32 1, ptr %23, align 4, !tbaa !8
  store i32 16842768, ptr %26, align 4
  %27 = getelementptr inbounds nuw i8, ptr %23, i64 8
  store ptr %14, ptr %27, align 8, !tbaa !4
  %28 = tail call ptr @l_Lean_Elab_pushInfoLeaf___at_Lean_Elab_OpenDecl_elabOpenDecl___spec__49___rarg(ptr noundef %2, ptr noundef %3, ptr noundef nonnull %23, ptr noundef %4)
  ret ptr %28
}